target datalayout = "e-m:e-p270:32:32-p271:32:32-p272:64:64-i64:64-i128:128-f80:128-n8:16:32:64-S128"
target triple = "x86_64-pc-linux-gnu"

%"class.o3dgc::Arithmetic_Codec" = type <{ ptr, ptr, ptr, i32, i32, i32, i32, i32, [4 x i8] }>
%"class.o3dgc::Static_Data_Model" = type { ptr, ptr, i32, i32, i32, i32 }

; Function Attrs: inlinehint mustprogress nounwind uwtable
define linkonce_odr hidden void @_ZN5o3dgc16Arithmetic_Codec19renorm_enc_intervalEv(ptr noundef nonnull align 8 dereferenceable(44) %0) #2 comdat align 2 {
  %2 = alloca ptr, align 8
  store ptr %0, ptr %2, align 8
  %3 = load ptr, ptr %2, align 8
  br label %4

4:                                                ; preds = %15, %1
  %5 = getelementptr inbounds nuw %"class.o3dgc::Arithmetic_Codec", ptr %3, i32 0, i32 3
  %6 = load i32, ptr %5, align 8
  %7 = lshr i32 %6, 24
  %8 = trunc i32 %7 to i8
  %9 = getelementptr inbounds nuw %"class.o3dgc::Arithmetic_Codec", ptr %3, i32 0, i32 2
  %10 = load ptr, ptr %9, align 8
  %11 = getelementptr inbounds nuw i8, ptr %10, i32 1
  store ptr %11, ptr %9, align 8
  store i8 %8, ptr %10, align 1
  %12 = getelementptr inbounds nuw %"class.o3dgc::Arithmetic_Codec", ptr %3, i32 0, i32 3
  %13 = load i32, ptr %12, align 8
  %14 = shl i32 %13, 8
  store i32 %14, ptr %12, align 8
  br label %15

15:                                               ; preds = %4
  %16 = getelementptr inbounds nuw %"class.o3dgc::Arithmetic_Codec", ptr %3, i32 0, i32 5
  %17 = load i32, ptr %16, align 8
  %18 = shl i32 %17, 8
  store i32 %18, ptr %16, align 8
  %19 = icmp ult i32 %18, 16777216
  br i1 %19, label %4, label %20, !llvm.loop !5

20:                                               ; preds = %15
  ret void
}

; Function Attrs: inlinehint mustprogress nounwind uwtable
define linkonce_odr hidden void @_ZN5o3dgc16Arithmetic_Codec15propagate_carryEv(ptr noundef nonnull align 8 dereferenceable(44) %0) #2 comdat align 2 {
  %2 = alloca ptr, align 8
  %3 = alloca ptr, align 8
  store ptr %0, ptr %2, align 8
  %4 = load ptr, ptr %2, align 8
  call void @llvm.lifetime.start.p0(i64 8, ptr %3) #12
  %5 = getelementptr inbounds nuw %"class.o3dgc::Arithmetic_Codec", ptr %4, i32 0, i32 2
  %6 = load ptr, ptr %5, align 8
  %7 = getelementptr inbounds i8, ptr %6, i64 -1
  store ptr %7, ptr %3, align 8
  br label %8

8:                                                ; preds = %15, %1
  %9 = load ptr, ptr %3, align 8
  %10 = load i8, ptr %9, align 1
  %11 = zext i8 %10 to i32
  %12 = icmp eq i32 %11, 255
  br i1 %12, label %13, label %18

13:                                               ; preds = %8
  %14 = load ptr, ptr %3, align 8
  store i8 0, ptr %14, align 1
  br label %15

15:                                               ; preds = %13
  %16 = load ptr, ptr %3, align 8
  %17 = getelementptr inbounds i8, ptr %16, i32 -1
  store ptr %17, ptr %3, align 8
  br label %8, !llvm.loop !3

18:                                               ; preds = %8
  %19 = load ptr, ptr %3, align 8
  %20 = load i8, ptr %19, align 1
  %21 = add i8 %20, 1
  store i8 %21, ptr %19, align 1
  call void @llvm.lifetime.end.p0(i64 8, ptr %3) #12
  ret void
}

; Function Attrs: mustprogress uwtable
define hidden void @_ZN5o3dgc16Arithmetic_Codec6encodeEjRNS_17Static_Data_ModelE(ptr noundef nonnull align 8 dereferenceable(44) %0, i32 noundef %1, ptr noundef nonnull align 8 dereferenceable(32) %2) #0 align 2 {
  %4 = alloca ptr, align 8
  %5 = alloca i32, align 4
  %6 = alloca ptr, align 8
  %7 = alloca i32, align 4
  %8 = alloca i32, align 4
  store ptr %0, ptr %4, align 8
  store i32 %1, ptr %5, align 4
  store ptr %2, ptr %6, align 8
  %9 = load ptr, ptr %4, align 8
  call void @llvm.lifetime.start.p0(i64 4, ptr %7) #12
  call void @llvm.lifetime.start.p0(i64 4, ptr %8) #12
  %10 = getelementptr inbounds nuw %"class.o3dgc::Arithmetic_Codec", ptr %9, i32 0, i32 3
  %11 = load i32, ptr %10, align 8
  store i32 %11, ptr %8, align 4
  %12 = load i32, ptr %5, align 4
  %13 = load ptr, ptr %6, align 8
  %14 = getelementptr inbounds nuw %"class.o3dgc::Static_Data_Model", ptr %13, i32 0, i32 3
  %15 = load i32, ptr %14, align 4
  %16 = icmp eq i32 %12, %15
  br i1 %16, label %17, label %37

17:                                               ; preds = %3
  %18 = load ptr, ptr %6, align 8
  %19 = getelementptr inbounds nuw %"class.o3dgc::Static_Data_Model", ptr %18, i32 0, i32 0
  %20 = load ptr, ptr %19, align 8
  %21 = load i32, ptr %5, align 4
  %22 = zext i32 %21 to i64
  %23 = getelementptr inbounds nuw i32, ptr %20, i64 %22
  %24 = load i32, ptr %23, align 4
  %25 = getelementptr inbounds nuw %"class.o3dgc::Arithmetic_Codec", ptr %9, i32 0, i32 5
  %26 = load i32, ptr %25, align 8
  %27 = lshr i32 %26, 15
  %28 = mul i32 %24, %27
  store i32 %28, ptr %7, align 4
  %29 = load i32, ptr %7, align 4
  %30 = getelementptr inbounds nuw %"class.o3dgc::Arithmetic_Codec", ptr %9, i32 0, i32 3
  %31 = load i32, ptr %30, align 8
  %32 = add i32 %31, %29
  store i32 %32, ptr %30, align 8
  %33 = load i32, ptr %7, align 4
  %34 = getelementptr inbounds nuw %"class.o3dgc::Arithmetic_Codec", ptr %9, i32 0, i32 5
  %35 = load i32, ptr %34, align 8
  %36 = sub i32 %35, %33
  store i32 %36, ptr %34, align 8
  br label %67

37:                                               ; preds = %3
  %38 = load ptr, ptr %6, align 8
  %39 = getelementptr inbounds nuw %"class.o3dgc::Static_Data_Model", ptr %38, i32 0, i32 0
  %40 = load ptr, ptr %39, align 8
  %41 = load i32, ptr %5, align 4
  %42 = zext i32 %41 to i64
  %43 = getelementptr inbounds nuw i32, ptr %40, i64 %42
  %44 = load i32, ptr %43, align 4
  %45 = getelementptr inbounds nuw %"class.o3dgc::Arithmetic_Codec", ptr %9, i32 0, i32 5
  %46 = load i32, ptr %45, align 8
  %47 = lshr i32 %46, 15
  store i32 %47, ptr %45, align 8
  %48 = mul i32 %44, %47
  store i32 %48, ptr %7, align 4
  %49 = load i32, ptr %7, align 4
  %50 = getelementptr inbounds nuw %"class.o3dgc::Arithmetic_Codec", ptr %9, i32 0, i32 3
  %51 = load i32, ptr %50, align 8
  %52 = add i32 %51, %49
  store i32 %52, ptr %50, align 8
  %53 = load ptr, ptr %6, align 8
  %54 = getelementptr inbounds nuw %"class.o3dgc::Static_Data_Model", ptr %53, i32 0, i32 0
  %55 = load ptr, ptr %54, align 8
  %56 = load i32, ptr %5, align 4
  %57 = add i32 %56, 1
  %58 = zext i32 %57 to i64
  %59 = getelementptr inbounds nuw i32, ptr %55, i64 %58
  %60 = load i32, ptr %59, align 4
  %61 = getelementptr inbounds nuw %"class.o3dgc::Arithmetic_Codec", ptr %9, i32 0, i32 5
  %62 = load i32, ptr %61, align 8
  %63 = mul i32 %60, %62
  %64 = load i32, ptr %7, align 4
  %65 = sub i32 %63, %64
  %66 = getelementptr inbounds nuw %"class.o3dgc::Arithmetic_Codec", ptr %9, i32 0, i32 5
  store i32 %65, ptr %66, align 8
  br label %67

67:                                               ; preds = %37, %17
  %68 = load i32, ptr %8, align 4
  %69 = getelementptr inbounds nuw %"class.o3dgc::Arithmetic_Codec", ptr %9, i32 0, i32 3
  %70 = load i32, ptr %69, align 8
  %71 = icmp ugt i32 %68, %70
  br i1 %71, label %72, label %73

72:                                               ; preds = %67
  call void @_ZN5o3dgc16Arithmetic_Codec15propagate_carryEv(ptr noundef nonnull align 8 dereferenceable(44) %9)
  br label %73

73:                                               ; preds = %72, %67
  %74 = getelementptr inbounds nuw %"class.o3dgc::Arithmetic_Codec", ptr %9, i32 0, i32 5
  %75 = load i32, ptr %74, align 8
  %76 = icmp ult i32 %75, 16777216
  br i1 %76, label %77, label %78

77:                                               ; preds = %73
  call void @_ZN5o3dgc16Arithmetic_Codec19renorm_enc_intervalEv(ptr noundef nonnull align 8 dereferenceable(44) %9)
  br label %78

78:                                               ; preds = %77, %73
  call void @llvm.lifetime.end.p0(i64 4, ptr %8) #12
  call void @llvm.lifetime.end.p0(i64 4, ptr %7) #12
  ret void
}