; Function Attrs: mustprogress nofree norecurse nosync nounwind memory(readwrite, inaccessiblemem: none) uwtable
define hidden void @_ZN5o3dgc16Arithmetic_Codec6encodeEjRNS_17Static_Data_ModelE(ptr noundef nonnull align 8 captures(none) dereferenceable(44) %0, i32 noundef %1, ptr noundef nonnull readonly align 8 captures(none) dereferenceable(32) %2) local_unnamed_addr #0 align 2 {
  %4 = getelementptr inbounds nuw i8, ptr %0, i64 24
  %5 = load i32, ptr %4, align 8
  %6 = getelementptr inbounds nuw i8, ptr %2, i64 20
  %7 = load i32, ptr %6, align 4
  %8 = icmp eq i32 %1, %7
  %9 = load ptr, ptr %2, align 8
  %10 = zext i32 %1 to i64
  %11 = getelementptr inbounds nuw i32, ptr %9, i64 %10
  %12 = load i32, ptr %11, align 4
  %13 = getelementptr inbounds nuw i8, ptr %0, i64 32
  %14 = load i32, ptr %13, align 8
  %15 = lshr i32 %14, 15
  br i1 %8, label %16, label %20

16:                                               ; preds = %3
  %17 = mul i32 %15, %12
  %18 = add i32 %17, %5
  store i32 %18, ptr %4, align 8
  %19 = sub i32 %14, %17
  br label %30

20:                                               ; preds = %3
  store i32 %15, ptr %13, align 8
  %21 = mul i32 %15, %12
  %22 = add i32 %21, %5
  store i32 %22, ptr %4, align 8
  %23 = load ptr, ptr %2, align 8
  %24 = add i32 %1, 1
  %25 = zext i32 %24 to i64
  %26 = getelementptr inbounds nuw i32, ptr %23, i64 %25
  %27 = load i32, ptr %26, align 4
  %28 = sub i32 %27, %12
  %29 = mul i32 %28, %15
  br label %30

30:                                               ; preds = %20, %16
  %.sink = phi i32 [ %29, %20 ], [ %19, %16 ]
  %31 = phi i32 [ %22, %20 ], [ %18, %16 ]
  store i32 %.sink, ptr %13, align 8
  %32 = icmp ugt i32 %5, %31
  br i1 %32, label %33, label %41

33:                                               ; preds = %30
  %34 = getelementptr inbounds nuw i8, ptr %0, i64 16
  %35 = load ptr, ptr %34, align 8
  %.05.i = getelementptr inbounds i8, ptr %35, i64 -1
  %36 = load i8, ptr %.05.i, align 1
  %37 = icmp eq i8 %36, -1
  br i1 %37, label %.lr.ph.i, label %_ZN5o3dgc16Arithmetic_Codec15propagate_carryEv.exit

.lr.ph.i:                                         ; preds = %33, %.lr.ph.i
  %.06.i = phi ptr [ %.0.i, %.lr.ph.i ], [ %.05.i, %33 ]
  store i8 0, ptr %.06.i, align 1
  %.0.i = getelementptr inbounds i8, ptr %.06.i, i64 -1
  %38 = load i8, ptr %.0.i, align 1
  %39 = icmp eq i8 %38, -1
  br i1 %39, label %.lr.ph.i, label %_ZN5o3dgc16Arithmetic_Codec15propagate_carryEv.exit, !llvm.loop !3

_ZN5o3dgc16Arithmetic_Codec15propagate_carryEv.exit: ; preds = %.lr.ph.i, %33
  %.0.lcssa.i = phi ptr [ %.05.i, %33 ], [ %.0.i, %.lr.ph.i ]
  %.lcssa.i = phi i8 [ %36, %33 ], [ %38, %.lr.ph.i ]
  %40 = add nuw i8 %.lcssa.i, 1
  store i8 %40, ptr %.0.lcssa.i, align 1
  %.phi.trans.insert = getelementptr inbounds nuw i8, ptr %0, i64 32
  %.pre = load i32, ptr %.phi.trans.insert, align 8
  br label %41

41:                                               ; preds = %_ZN5o3dgc16Arithmetic_Codec15propagate_carryEv.exit, %30
  %42 = phi i32 [ %.pre, %_ZN5o3dgc16Arithmetic_Codec15propagate_carryEv.exit ], [ %.sink, %30 ]
  %43 = getelementptr inbounds nuw i8, ptr %0, i64 32
  %44 = icmp ult i32 %42, 16777216
  br i1 %44, label %45, label %_ZN5o3dgc16Arithmetic_Codec19renorm_enc_intervalEv.exit

45:                                               ; preds = %41
  %46 = getelementptr inbounds nuw i8, ptr %0, i64 16
  %.pre.i = load i32, ptr %4, align 8
  br label %47

47:                                               ; preds = %47, %45
  %48 = phi i32 [ %54, %47 ], [ %.pre.i, %45 ]
  %49 = lshr i32 %48, 24
  %50 = trunc nuw i32 %49 to i8
  %51 = load ptr, ptr %46, align 8
  %52 = getelementptr inbounds nuw i8, ptr %51, i64 1
  store ptr %52, ptr %46, align 8
  store i8 %50, ptr %51, align 1
  %53 = load i32, ptr %4, align 8
  %54 = shl i32 %53, 8
  store i32 %54, ptr %4, align 8
  %55 = load i32, ptr %43, align 8
  %56 = shl i32 %55, 8
  store i32 %56, ptr %43, align 8
  %57 = icmp ult i32 %56, 16777216
  br i1 %57, label %47, label %_ZN5o3dgc16Arithmetic_Codec19renorm_enc_intervalEv.exit, !llvm.loop !5

_ZN5o3dgc16Arithmetic_Codec19renorm_enc_intervalEv.exit: ; preds = %47, %41
  ret void
}